target datalayout = "e-m:e-p270:32:32-p271:32:32-p272:64:64-i64:64-i128:128-f80:128-n8:16:32:64-S128"
target triple = "x86_64-pc-linux-gnu"

%struct.UConverter = type { ptr, ptr, ptr, ptr, ptr, ptr, ptr, i32, i8, i8, i8, i8, i8, [7 x i8], i32, i32, i32, i32, i8, i8, i8, i8, i8, i8, i8, i8, [8 x i8], [32 x i8], [2 x i16], [2 x i16], [32 x i16], i32, [19 x i16], [31 x i8], i8, i8, i8, i32 }

; Function Attrs: mustprogress nounwind uwtable
define internal noundef signext i8 @_ZL28ucnv_outputOverflowToUnicodeP10UConverterPPDsPKDsPPiP10UErrorCode(ptr noundef %0, ptr noundef %1, ptr noundef %2, ptr noundef %3, ptr noundef %4) #4 {
  %6 = alloca i8, align 1
  %7 = alloca ptr, align 8
  %8 = alloca ptr, align 8
  %9 = alloca ptr, align 8
  %10 = alloca ptr, align 8
  %11 = alloca ptr, align 8
  %12 = alloca ptr, align 8
  %13 = alloca ptr, align 8
  %14 = alloca ptr, align 8
  %15 = alloca i32, align 4
  %16 = alloca i32, align 4
  %17 = alloca i32, align 4
  %18 = alloca i32, align 4
  store ptr %0, ptr %7, align 8, !tbaa !11
  store ptr %1, ptr %8, align 8, !tbaa !86
  store ptr %2, ptr %9, align 8, !tbaa !13
  store ptr %3, ptr %10, align 8, !tbaa !95
  store ptr %4, ptr %11, align 8, !tbaa !8
  call void @llvm.lifetime.start.p0(i64 8, ptr %12) #11
  call void @llvm.lifetime.start.p0(i64 8, ptr %13) #11
  call void @llvm.lifetime.start.p0(i64 8, ptr %14) #11
  call void @llvm.lifetime.start.p0(i64 4, ptr %15) #11
  call void @llvm.lifetime.start.p0(i64 4, ptr %16) #11
  %19 = load ptr, ptr %8, align 8, !tbaa !86
  %20 = load ptr, ptr %19, align 8, !tbaa !13
  store ptr %20, ptr %14, align 8, !tbaa !13
  %21 = load ptr, ptr %10, align 8, !tbaa !95
  %22 = icmp ne ptr %21, null
  br i1 %22, label %23, label %26

23:                                               ; preds = %5
  %24 = load ptr, ptr %10, align 8, !tbaa !95
  %25 = load ptr, ptr %24, align 8, !tbaa !20
  store ptr %25, ptr %12, align 8, !tbaa !20
  br label %27

26:                                               ; preds = %5
  store ptr null, ptr %12, align 8, !tbaa !20
  br label %27

27:                                               ; preds = %26, %23
  %28 = load ptr, ptr %7, align 8, !tbaa !11
  %29 = getelementptr inbounds nuw %struct.UConverter, ptr %28, i32 0, i32 30
  %30 = getelementptr inbounds [32 x i16], ptr %29, i64 0, i64 0
  store ptr %30, ptr %13, align 8, !tbaa !13
  %31 = load ptr, ptr %7, align 8, !tbaa !11
  %32 = getelementptr inbounds nuw %struct.UConverter, ptr %31, i32 0, i32 23
  %33 = load i8, ptr %32, align 1, !tbaa !70
  %34 = sext i8 %33 to i32
  store i32 %34, ptr %16, align 4, !tbaa !15
  store i32 0, ptr %15, align 4, !tbaa !15
  br label %35

35:                                               ; preds = %88, %27
  %36 = load i32, ptr %15, align 4, !tbaa !15
  %37 = load i32, ptr %16, align 4, !tbaa !15
  %38 = icmp slt i32 %36, %37
  br i1 %38, label %39, label %89

39:                                               ; preds = %35
  %40 = load ptr, ptr %14, align 8, !tbaa !13
  %41 = load ptr, ptr %9, align 8, !tbaa !13
  %42 = icmp eq ptr %40, %41
  br i1 %42, label %43, label %74

43:                                               ; preds = %39
  call void @llvm.lifetime.start.p0(i64 4, ptr %17) #11
  store i32 0, ptr %17, align 4, !tbaa !15
  br label %44

44:                                               ; preds = %56, %43
  %45 = load ptr, ptr %13, align 8, !tbaa !13
  %46 = load i32, ptr %15, align 4, !tbaa !15
  %47 = add nsw i32 %46, 1
  store i32 %47, ptr %15, align 4, !tbaa !15
  %48 = sext i32 %46 to i64
  %49 = getelementptr inbounds i16, ptr %45, i64 %48
  %50 = load i16, ptr %49, align 2, !tbaa !101
  %51 = load ptr, ptr %13, align 8, !tbaa !13
  %52 = load i32, ptr %17, align 4, !tbaa !15
  %53 = add nsw i32 %52, 1
  store i32 %53, ptr %17, align 4, !tbaa !15
  %54 = sext i32 %52 to i64
  %55 = getelementptr inbounds i16, ptr %51, i64 %54
  store i16 %50, ptr %55, align 2, !tbaa !101
  br label %56

56:                                               ; preds = %44
  %57 = load i32, ptr %15, align 4, !tbaa !15
  %58 = load i32, ptr %16, align 4, !tbaa !15
  %59 = icmp slt i32 %57, %58
  br i1 %59, label %44, label %60, !llvm.loop !111

60:                                               ; preds = %56
  %61 = load i32, ptr %17, align 4, !tbaa !15
  %62 = trunc i32 %61 to i8
  %63 = load ptr, ptr %7, align 8, !tbaa !11
  %64 = getelementptr inbounds nuw %struct.UConverter, ptr %63, i32 0, i32 23
  store i8 %62, ptr %64, align 1, !tbaa !70
  %65 = load ptr, ptr %14, align 8, !tbaa !13
  %66 = load ptr, ptr %8, align 8, !tbaa !86
  store ptr %65, ptr %66, align 8, !tbaa !13
  %67 = load ptr, ptr %12, align 8, !tbaa !20
  %68 = icmp ne ptr %67, null
  br i1 %68, label %69, label %72

69:                                               ; preds = %60
  %70 = load ptr, ptr %12, align 8, !tbaa !20
  %71 = load ptr, ptr %10, align 8, !tbaa !95
  store ptr %70, ptr %71, align 8, !tbaa !20
  br label %72

72:                                               ; preds = %69, %60
  %73 = load ptr, ptr %11, align 8, !tbaa !8
  store i32 15, ptr %73, align 4, !tbaa !9
  store i8 1, ptr %6, align 1
  store i32 1, ptr %18, align 4
  call void @llvm.lifetime.end.p0(i64 4, ptr %17) #11
  br label %100

74:                                               ; preds = %39
  %75 = load ptr, ptr %13, align 8, !tbaa !13
  %76 = load i32, ptr %15, align 4, !tbaa !15
  %77 = add nsw i32 %76, 1
  store i32 %77, ptr %15, align 4, !tbaa !15
  %78 = sext i32 %76 to i64
  %79 = getelementptr inbounds i16, ptr %75, i64 %78
  %80 = load i16, ptr %79, align 2, !tbaa !101
  %81 = load ptr, ptr %14, align 8, !tbaa !13
  %82 = getelementptr inbounds nuw i16, ptr %81, i32 1
  store ptr %82, ptr %14, align 8, !tbaa !13
  store i16 %80, ptr %81, align 2, !tbaa !101
  %83 = load ptr, ptr %12, align 8, !tbaa !20
  %84 = icmp ne ptr %83, null
  br i1 %84, label %85, label %88

85:                                               ; preds = %74
  %86 = load ptr, ptr %12, align 8, !tbaa !20
  %87 = getelementptr inbounds nuw i32, ptr %86, i32 1
  store ptr %87, ptr %12, align 8, !tbaa !20
  store i32 -1, ptr %86, align 4, !tbaa !15
  br label %88

88:                                               ; preds = %85, %74
  br label %35, !llvm.loop !112

89:                                               ; preds = %35
  %90 = load ptr, ptr %7, align 8, !tbaa !11
  %91 = getelementptr inbounds nuw %struct.UConverter, ptr %90, i32 0, i32 23
  store i8 0, ptr %91, align 1, !tbaa !70
  %92 = load ptr, ptr %14, align 8, !tbaa !13
  %93 = load ptr, ptr %8, align 8, !tbaa !86
  store ptr %92, ptr %93, align 8, !tbaa !13
  %94 = load ptr, ptr %12, align 8, !tbaa !20
  %95 = icmp ne ptr %94, null
  br i1 %95, label %96, label %99

96:                                               ; preds = %89
  %97 = load ptr, ptr %12, align 8, !tbaa !20
  %98 = load ptr, ptr %10, align 8, !tbaa !95
  store ptr %97, ptr %98, align 8, !tbaa !20
  br label %99

99:                                               ; preds = %96, %89
  store i8 0, ptr %6, align 1
  store i32 1, ptr %18, align 4
  br label %100

100:                                              ; preds = %99, %72
  call void @llvm.lifetime.end.p0(i64 4, ptr %16) #11
  call void @llvm.lifetime.end.p0(i64 4, ptr %15) #11
  call void @llvm.lifetime.end.p0(i64 8, ptr %14) #11
  call void @llvm.lifetime.end.p0(i64 8, ptr %13) #11
  call void @llvm.lifetime.end.p0(i64 8, ptr %12) #11
  %101 = load i8, ptr %6, align 1
  ret i8 %101
}