; Function Attrs: mustprogress nofree norecurse nosync nounwind memory(write, argmem: readwrite, inaccessiblemem: none) uwtable
define internal fastcc noundef signext range(i8 0, 2) i8 @_ZL28ucnv_outputOverflowToUnicodeP10UConverterPPDsPKDsPPiP10UErrorCode(ptr noundef nonnull captures(none) %0, ptr noundef nonnull captures(none) %1, ptr noundef readnone %2, ptr noundef %3, ptr noundef nonnull writeonly captures(none) %4) unnamed_addr #11 {
  %6 = load ptr, ptr %1, align 8, !tbaa !53
  %.not = icmp eq ptr %3, null
  br i1 %.not, label %9, label %7

7:                                                ; preds = %5
  %8 = load ptr, ptr %3, align 8, !tbaa !74
  br label %9

9:                                                ; preds = %5, %7
  %.037 = phi ptr [ %8, %7 ], [ null, %5 ]
  %10 = getelementptr inbounds nuw i8, ptr %0, i64 144
  %11 = getelementptr inbounds nuw i8, ptr %0, i64 93
  %12 = load i8, ptr %11, align 1, !tbaa !67
  %13 = icmp sgt i8 %12, 0
  br i1 %13, label %.lr.ph.preheader, label %._crit_edge

.lr.ph.preheader:                                 ; preds = %9
  %wide.trip.count = zext nneg i8 %12 to i64
  br label %.lr.ph

.lr.ph:                                           ; preds = %.lr.ph.preheader, %31
  %indvars.iv = phi i64 [ 0, %.lr.ph.preheader ], [ %indvars.iv.next, %31 ]
  %.03648 = phi ptr [ %6, %.lr.ph.preheader ], [ %28, %31 ]
  %.13847 = phi ptr [ %.037, %.lr.ph.preheader ], [ %.2, %31 ]
  %14 = icmp eq ptr %.03648, %2
  br i1 %14, label %.preheader, label %25

.preheader:                                       ; preds = %.lr.ph
  %15 = zext nneg i8 %12 to i64
  br label %16

16:                                               ; preds = %.preheader, %16
  %indvars.iv60 = phi i64 [ 0, %.preheader ], [ %indvars.iv.next61, %16 ]
  %indvars.iv58 = phi i64 [ %indvars.iv, %.preheader ], [ %indvars.iv.next59, %16 ]
  %indvars.iv.next59 = add nuw nsw i64 %indvars.iv58, 1
  %17 = getelementptr inbounds nuw i16, ptr %10, i64 %indvars.iv58
  %18 = load i16, ptr %17, align 2, !tbaa !88
  %indvars.iv.next61 = add nuw nsw i64 %indvars.iv60, 1
  %19 = getelementptr inbounds nuw i16, ptr %10, i64 %indvars.iv60
  store i16 %18, ptr %19, align 2, !tbaa !88
  %20 = icmp samesign ult i64 %indvars.iv.next59, %15
  br i1 %20, label %16, label %21, !llvm.loop !97

21:                                               ; preds = %16
  %22 = trunc i64 %indvars.iv.next61 to i8
  store i8 %22, ptr %11, align 1, !tbaa !67
  store ptr %.03648, ptr %1, align 8, !tbaa !53
  %.not43 = icmp eq ptr %.13847, null
  br i1 %.not43, label %24, label %23

23:                                               ; preds = %21
  store ptr %.13847, ptr %3, align 8, !tbaa !74
  br label %24

24:                                               ; preds = %23, %21
  store i32 15, ptr %4, align 4, !tbaa !3
  br label %33

25:                                               ; preds = %.lr.ph
  %indvars.iv.next = add nuw nsw i64 %indvars.iv, 1
  %26 = getelementptr inbounds nuw i16, ptr %10, i64 %indvars.iv
  %27 = load i16, ptr %26, align 2, !tbaa !88
  %28 = getelementptr inbounds nuw i8, ptr %.03648, i64 2
  store i16 %27, ptr %.03648, align 2, !tbaa !88
  %.not42 = icmp eq ptr %.13847, null
  br i1 %.not42, label %31, label %29

29:                                               ; preds = %25
  %30 = getelementptr inbounds nuw i8, ptr %.13847, i64 4
  store i32 -1, ptr %.13847, align 4, !tbaa !26
  br label %31

31:                                               ; preds = %29, %25
  %.2 = phi ptr [ %30, %29 ], [ null, %25 ]
  %exitcond.not = icmp eq i64 %indvars.iv.next, %wide.trip.count
  br i1 %exitcond.not, label %._crit_edge, label %.lr.ph, !llvm.loop !98

._crit_edge:                                      ; preds = %31, %9
  %.138.lcssa = phi ptr [ %.037, %9 ], [ %.2, %31 ]
  %.036.lcssa = phi ptr [ %6, %9 ], [ %28, %31 ]
  store i8 0, ptr %11, align 1, !tbaa !67
  store ptr %.036.lcssa, ptr %1, align 8, !tbaa !53
  %.not41 = icmp eq ptr %.138.lcssa, null
  br i1 %.not41, label %33, label %32

32:                                               ; preds = %._crit_edge
  store ptr %.138.lcssa, ptr %3, align 8, !tbaa !74
  br label %33

33:                                               ; preds = %._crit_edge, %32, %24
  %.034 = phi i8 [ 1, %24 ], [ 0, %32 ], [ 0, %._crit_edge ]
  ret i8 %.034
}